; Function Attrs: mustprogress nounwind uwtable
define void @_ZN20TlsServerCredentialsD2Ev(ptr nocapture noundef nonnull align 8 dereferenceable(48) %this) unnamed_addr #4 align 2 personality ptr @__gxx_personality_v0 {
entry:
  %options_ = getelementptr inbounds i8, ptr %this, i64 40
  %0 = load ptr, ptr %options_, align 8
  %cmp.not.i = icmp eq ptr %0, null
  br i1 %cmp.not.i, label %_ZN9grpc_core13RefCountedPtrI28grpc_tls_credentials_optionsED2Ev.exit, label %if.then.i

if.then.i:                                        ; preds = %entry
  %refs_.i.i = getelementptr inbounds i8, ptr %0, i64 8
  %1 = atomicrmw sub ptr %refs_.i.i, i64 1 acq_rel, align 8
  %cmp.i.i.i = icmp eq i64 %1, 1
  br i1 %cmp.i.i.i, label %if.then.i.i, label %_ZN9grpc_core13RefCountedPtrI28grpc_tls_credentials_optionsED2Ev.exit

if.then.i.i:                                      ; preds = %if.then.i
  %vtable.i.i.i = load ptr, ptr %0, align 8
  %vfn.i.i.i = getelementptr inbounds i8, ptr %vtable.i.i.i, i64 8
  %2 = load ptr, ptr %vfn.i.i.i, align 8
  tail call void %2(ptr noundef nonnull align 8 dereferenceable(217) %0) #17
  br label %_ZN9grpc_core13RefCountedPtrI28grpc_tls_credentials_optionsED2Ev.exit

_ZN9grpc_core13RefCountedPtrI28grpc_tls_credentials_optionsED2Ev.exit: ; preds = %entry, %if.then.i, %if.then.i.i
  store ptr getelementptr inbounds ({ [6 x ptr] }, ptr @_ZTV23grpc_server_credentials, i64 0, i32 0, i64 2), ptr %this, align 8
  %destroy.i.i = getelementptr inbounds i8, ptr %this, i64 24
  %3 = load ptr, ptr %destroy.i.i, align 8
  %cmp.not.i.i = icmp eq ptr %3, null
  br i1 %cmp.not.i.i, label %_ZN23grpc_server_credentialsD2Ev.exit, label %land.lhs.true.i.i

land.lhs.true.i.i:                                ; preds = %_ZN9grpc_core13RefCountedPtrI28grpc_tls_credentials_optionsED2Ev.exit
  %state.i.i = getelementptr inbounds i8, ptr %this, i64 32
  %4 = load ptr, ptr %state.i.i, align 8
  %cmp3.not.i.i = icmp eq ptr %4, null
  br i1 %cmp3.not.i.i, label %_ZN23grpc_server_credentialsD2Ev.exit, label %if.then.i.i1

if.then.i.i1:                                     ; preds = %land.lhs.true.i.i
  invoke void %3(ptr noundef nonnull %4)
          to label %_ZN23grpc_server_credentialsD2Ev.exit unwind label %terminate.lpad.i

terminate.lpad.i:                                 ; preds = %if.then.i.i1
  %5 = landingpad { ptr, i32 }
          catch ptr null
  %6 = extractvalue { ptr, i32 } %5, 0
  tail call void @__clang_call_terminate(ptr %6) #20
  unreachable

_ZN23grpc_server_credentialsD2Ev.exit:            ; preds = %_ZN9grpc_core13RefCountedPtrI28grpc_tls_credentials_optionsED2Ev.exit, %land.lhs.true.i.i, %if.then.i.i1
  ret void
}